; ModuleID = '10/218.c'
source_filename = "10/218.c"
target datalayout = "e-m:e-p270:32:32-p271:32:32-p272:64:64-i64:64-f80:128-n8:16:32:64-S128"
target triple = "x86_64-pc-linux-gnu"

@n = common dso_local global i32 0, align 4
@k = common dso_local global [25 x i32] zeroinitializer, align 16
@.str = private unnamed_addr constant [3 x i8] c"%d\00", align 1

; Function Attrs: noinline nounwind uwtable
define dso_local i32 @f(i32 %0, i32 %1, i32 %2) #0 {
  %4 = alloca i32, align 4
  %5 = alloca i32, align 4
  %6 = alloca i32, align 4
  %7 = alloca i32, align 4
  %8 = alloca i32, align 4
  %9 = alloca i32, align 4
  store i32 %0, i32* %5, align 4
  store i32 %1, i32* %6, align 4
  store i32 %2, i32* %7, align 4
  store i32 0, i32* %9, align 4
  %10 = load i32, i32* %6, align 4
  %11 = load i32, i32* @n, align 4
  %12 = icmp eq i32 %10, %11
  br i1 %12, label %13, label %15

13:                                               ; preds = %3
  %14 = load i32, i32* %7, align 4
  store i32 %14, i32* %4, align 4
  br label %47

15:                                               ; preds = %3
  %16 = load i32, i32* %5, align 4
  %17 = load i32, i32* %6, align 4
  %18 = add nsw i32 %17, 1
  %19 = load i32, i32* %7, align 4
  %20 = call i32 @f(i32 %16, i32 %18, i32 %19)
  store i32 %20, i32* %8, align 4
  %21 = load i32, i32* %5, align 4
  %22 = load i32, i32* %6, align 4
  %23 = sext i32 %22 to i64
  %24 = getelementptr inbounds [25 x i32], [25 x i32]* @k, i64 0, i64 %23
  %25 = load i32, i32* %24, align 4
  %26 = icmp sge i32 %21, %25
  br i1 %26, label %27, label %37

27:                                               ; preds = %15
  %28 = load i32, i32* %6, align 4
  %29 = sext i32 %28 to i64
  %30 = getelementptr inbounds [25 x i32], [25 x i32]* @k, i64 0, i64 %29
  %31 = load i32, i32* %30, align 4
  %32 = load i32, i32* %6, align 4
  %33 = add nsw i32 %32, 1
  %34 = load i32, i32* %7, align 4
  %35 = add nsw i32 %34, 1
  %36 = call i32 @f(i32 %31, i32 %33, i32 %35)
  store i32 %36, i32* %9, align 4
  br label %37

37:                                               ; preds = %27, %15
  %38 = load i32, i32* %8, align 4
  %39 = load i32, i32* %9, align 4
  %40 = icmp sgt i32 %38, %39
  br i1 %40, label %41, label %43

41:                                               ; preds = %37
  %42 = load i32, i32* %8, align 4
  br label %45

43:                                               ; preds = %37
  %44 = load i32, i32* %9, align 4
  br label %45

45:                                               ; preds = %43, %41
  %46 = phi i32 [ %42, %41 ], [ %44, %43 ]
  store i32 %46, i32* %4, align 4
  br label %47

47:                                               ; preds = %45, %13
  %48 = load i32, i32* %4, align 4
  ret i32 %48
}

; Function Attrs: noinline nounwind uwtable
define dso_local void @main() #0 {
  %1 = alloca i32, align 4
  %2 = call i32 (i8*, ...) @__isoc99_scanf(i8* getelementptr inbounds ([3 x i8], [3 x i8]* @.str, i64 0, i64 0), i32* @n)
  store i32 0, i32* %1, align 4
  br label %3

3:                                                ; preds = %12, %0
  %4 = load i32, i32* %1, align 4
  %5 = load i32, i32* @n, align 4
  %6 = icmp slt i32 %4, %5
  br i1 %6, label %7, label %15

7:                                                ; preds = %3
  %8 = load i32, i32* %1, align 4
  %9 = sext i32 %8 to i64
  %10 = getelementptr inbounds [25 x i32], [25 x i32]* @k, i64 0, i64 %9
  %11 = call i32 (i8*, ...) @__isoc99_scanf(i8* getelementptr inbounds ([3 x i8], [3 x i8]* @.str, i64 0, i64 0), i32* %10)
  br label %12

12:                                               ; preds = %7
  %13 = load i32, i32* %1, align 4
  %14 = add nsw i32 %13, 1
  store i32 %14, i32* %1, align 4
  br label %3

15:                                               ; preds = %3
  %16 = call i32 @f(i32 2147483647, i32 0, i32 0)
  %17 = call i32 (i8*, ...) @printf(i8* getelementptr inbounds ([3 x i8], [3 x i8]* @.str, i64 0, i64 0), i32 %16)
  ret void
}

declare dso_local i32 @__isoc99_scanf(i8*, ...) #1

declare dso_local i32 @printf(i8*, ...) #1


!llvm.module.flags = !{!0}
!llvm.ident = !{!1}

!0 = !{i32 1, !"wchar_size", i32 4}
!1 = !{!"clang version 10.0.0-4ubuntu1 "}
